; Function Attrs: null_pointer_is_valid sspstrong uwtable
define hidden void @frame_delta_abs_time(ptr noundef %0, ptr noundef %1, i32 noundef %2, ptr noundef %3) local_unnamed_addr #0 {
  %.not = icmp eq i32 %2, 0
  br i1 %.not, label %.thread, label %5

5:                                                ; preds = %4
  %6 = tail call ptr @epan_get_frame_ts(ptr noundef %0, i32 noundef %2)
  %.not8 = icmp eq ptr %6, null
  br i1 %.not8, label %.thread, label %7

7:                                                ; preds = %5
  %8 = getelementptr inbounds nuw i8, ptr %1, i64 64
  tail call void @nstime_delta(ptr noundef %3, ptr noundef nonnull %8, ptr noundef nonnull %6)
  br label %9

.thread:                                          ; preds = %4, %5
  tail call void @nstime_set_zero(ptr noundef %3)
  br label %9

9:                                                ; preds = %.thread, %7
  ret void
}